; Function Attrs: mustprogress nounwind uwtable
define hidden void @_ZN15G1FullCollector13restore_marksEv(ptr noundef nonnull align 8 dereferenceable(824) %0) local_unnamed_addr #0 align 2 {
  %2 = getelementptr inbounds i8, ptr %0, i64 544
  %3 = load ptr, ptr %0, align 8
  %4 = getelementptr inbounds i8, ptr %3, i64 128
  %5 = load ptr, ptr %4, align 8
  tail call void @_ZN17PreservedMarksSet7restoreEP13WorkerThreads(ptr noundef nonnull align 8 dereferenceable(16) %2, ptr noundef %5) #13
  tail call void @_ZN17PreservedMarksSet7reclaimEv(ptr noundef nonnull align 8 dereferenceable(16) %2) #13
  ret void
}